target datalayout = "e-m:e-p270:32:32-p271:32:32-p272:64:64-i64:64-i128:128-f80:128-n8:16:32:64-S128"
target triple = "x86_64-pc-linux-gnu"

%struct._object = type { %union.anon, ptr }
%union.anon = type { i64 }
%struct.anon = type { i32, i32 }
%struct.PyVarObject = type { %struct._object, i64 }
%struct.Compressor = type { %struct._object, %struct.lzma_allocator, %struct.lzma_stream, i32, ptr }
%struct.lzma_allocator = type { ptr, ptr, ptr }
%struct.lzma_stream = type { ptr, i64, i64, ptr, i64, i64, ptr, ptr, ptr, ptr, ptr, ptr, i64, i64, i64, i64, i32, i32 }
%struct._typeobject = type { %struct.PyVarObject, ptr, i64, i64, ptr, i64, ptr, ptr, ptr, ptr, ptr, ptr, ptr, ptr, ptr, ptr, ptr, ptr, ptr, i64, ptr, ptr, ptr, ptr, i64, ptr, ptr, ptr, ptr, ptr, ptr, ptr, ptr, ptr, i64, ptr, ptr, ptr, ptr, ptr, ptr, ptr, ptr, ptr, ptr, ptr, i32, ptr, ptr, i8, i16 }

@PyExc_ValueError = external global ptr, align 8
@PyExc_OverflowError = external global ptr, align 8
@.str.21 = private unnamed_addr constant [34 x i8] c"Value too large for uint32_t type\00", align 1
@PyExc_MemoryError = external global ptr, align 8
@Compressor_new.arg_names = internal global [5 x ptr] [ptr @.str.78, ptr @.str.79, ptr @.str.9, ptr @.str.80, ptr null], align 16
@_Py_NoneStruct = external global %struct._object, align 8
@.str.81 = private unnamed_addr constant [21 x i8] c"|iiOO:LZMACompressor\00", align 1
@.str.82 = private unnamed_addr constant [49 x i8] c"Integrity checks are only supported by FORMAT_XZ\00", align 1
@.str.83 = private unnamed_addr constant [44 x i8] c"Cannot specify both preset and filter chain\00", align 1
@.str.84 = private unnamed_addr constant [24 x i8] c"Unable to allocate lock\00", align 1
@.str.85 = private unnamed_addr constant [29 x i8] c"Invalid container format: %d\00", align 1

; Function Attrs: alwaysinline nounwind uwtable
define internal i32 @_Py_IsImmortal(ptr noundef %0) #6 {
  %2 = alloca ptr, align 8
  store ptr %0, ptr %2, align 8, !tbaa !3
  %3 = load ptr, ptr %2, align 8, !tbaa !3
  %4 = getelementptr inbounds nuw %struct._object, ptr %3, i32 0, i32 0
  %5 = getelementptr inbounds nuw %struct.anon, ptr %4, i32 0, i32 0
  %6 = load i32, ptr %5, align 8, !tbaa !31
  %7 = icmp slt i32 %6, 0
  %8 = zext i1 %7 to i32
  ret i32 %8
}

; Function Attrs: alwaysinline nounwind uwtable
define internal void @Py_DECREF(ptr noundef %0) #6 {
  %2 = alloca ptr, align 8
  store ptr %0, ptr %2, align 8, !tbaa !3
  %3 = load ptr, ptr %2, align 8, !tbaa !3
  %4 = call i32 @_Py_IsImmortal(ptr noundef %3)
  %5 = icmp ne i32 %4, 0
  br i1 %5, label %6, label %7

6:                                                ; preds = %1
  br label %16

7:                                                ; preds = %1
  %8 = load ptr, ptr %2, align 8, !tbaa !3
  %9 = getelementptr inbounds nuw %struct._object, ptr %8, i32 0, i32 0
  %10 = getelementptr inbounds nuw %struct.anon, ptr %9, i32 0, i32 0
  %11 = load i32, ptr %10, align 8, !tbaa !31
  %12 = add i32 %11, -1
  store i32 %12, ptr %10, align 8, !tbaa !31
  %13 = icmp eq i32 %12, 0
  br i1 %13, label %14, label %16

14:                                               ; preds = %7
  %15 = load ptr, ptr %2, align 8, !tbaa !3
  call void @_Py_Dealloc(ptr noundef %15)
  br label %16

16:                                               ; preds = %6, %14, %7
  ret void
}

; Function Attrs: nounwind uwtable
define internal i32 @uint32_converter(ptr noundef %0, ptr noundef %1) #0 {
  %3 = alloca i32, align 4
  %4 = alloca ptr, align 8
  %5 = alloca ptr, align 8
  %6 = alloca i64, align 8
  %7 = alloca i32, align 4
  store ptr %0, ptr %4, align 8, !tbaa !3
  store ptr %1, ptr %5, align 8, !tbaa !8
  call void @llvm.lifetime.start.p0(i64 8, ptr %6) #9
  %8 = load ptr, ptr %4, align 8, !tbaa !3
  %9 = call i64 @PyLong_AsUnsignedLongLong(ptr noundef %8)
  store i64 %9, ptr %6, align 8, !tbaa !37
  %10 = call ptr @PyErr_Occurred()
  %11 = icmp ne ptr %10, null
  br i1 %11, label %12, label %13

12:                                               ; preds = %2
  store i32 0, ptr %3, align 4
  store i32 1, ptr %7, align 4
  br label %25

13:                                               ; preds = %2
  %14 = load i64, ptr %6, align 8, !tbaa !37
  %15 = trunc i64 %14 to i32
  %16 = zext i32 %15 to i64
  %17 = load i64, ptr %6, align 8, !tbaa !37
  %18 = icmp ne i64 %16, %17
  br i1 %18, label %19, label %21

19:                                               ; preds = %13
  %20 = load ptr, ptr @PyExc_OverflowError, align 8, !tbaa !3
  call void @PyErr_SetString(ptr noundef %20, ptr noundef @.str.21)
  store i32 0, ptr %3, align 4
  store i32 1, ptr %7, align 4
  br label %25

21:                                               ; preds = %13
  %22 = load i64, ptr %6, align 8, !tbaa !37
  %23 = trunc i64 %22 to i32
  %24 = load ptr, ptr %5, align 8, !tbaa !8
  store i32 %23, ptr %24, align 4, !tbaa !12
  store i32 1, ptr %3, align 4
  store i32 1, ptr %7, align 4
  br label %25

25:                                               ; preds = %21, %19, %12
  call void @llvm.lifetime.end.p0(i64 8, ptr %6) #9
  %26 = load i32, ptr %3, align 4
  ret i32 %26
}

; Function Attrs: nounwind uwtable
define internal ptr @Compressor_new(ptr noundef %0, ptr noundef %1, ptr noundef %2) #0 {
  %4 = alloca ptr, align 8
  %5 = alloca ptr, align 8
  %6 = alloca ptr, align 8
  %7 = alloca ptr, align 8
  %8 = alloca i32, align 4
  %9 = alloca i32, align 4
  %10 = alloca i32, align 4
  %11 = alloca ptr, align 8
  %12 = alloca ptr, align 8
  %13 = alloca ptr, align 8
  %14 = alloca ptr, align 8
  %15 = alloca i32, align 4
  store ptr %0, ptr %5, align 8, !tbaa !19
  store ptr %1, ptr %6, align 8, !tbaa !3
  store ptr %2, ptr %7, align 8, !tbaa !3
  call void @llvm.lifetime.start.p0(i64 4, ptr %8) #9
  store i32 1, ptr %8, align 4, !tbaa !12
  call void @llvm.lifetime.start.p0(i64 4, ptr %9) #9
  store i32 -1, ptr %9, align 4, !tbaa !12
  call void @llvm.lifetime.start.p0(i64 4, ptr %10) #9
  store i32 6, ptr %10, align 4, !tbaa !12
  call void @llvm.lifetime.start.p0(i64 8, ptr %11) #9
  store ptr @_Py_NoneStruct, ptr %11, align 8, !tbaa !3
  call void @llvm.lifetime.start.p0(i64 8, ptr %12) #9
  store ptr @_Py_NoneStruct, ptr %12, align 8, !tbaa !3
  call void @llvm.lifetime.start.p0(i64 8, ptr %13) #9
  call void @llvm.lifetime.start.p0(i64 8, ptr %14) #9
  %16 = load ptr, ptr %5, align 8, !tbaa !19
  %17 = call ptr @PyType_GetModuleState(ptr noundef %16)
  store ptr %17, ptr %14, align 8, !tbaa !8
  %18 = load ptr, ptr %6, align 8, !tbaa !3
  %19 = load ptr, ptr %7, align 8, !tbaa !3
  %20 = call i32 (ptr, ptr, ptr, ptr, ...) @PyArg_ParseTupleAndKeywords(ptr noundef %18, ptr noundef %19, ptr noundef @.str.81, ptr noundef @Compressor_new.arg_names, ptr noundef %8, ptr noundef %9, ptr noundef %11, ptr noundef %12)
  %21 = icmp ne i32 %20, 0
  br i1 %21, label %23, label %22

22:                                               ; preds = %3
  store ptr null, ptr %4, align 8
  store i32 1, ptr %15, align 4
  br label %130

23:                                               ; preds = %3
  %24 = load i32, ptr %8, align 4, !tbaa !12
  %25 = icmp ne i32 %24, 1
  br i1 %25, label %26, label %34

26:                                               ; preds = %23
  %27 = load i32, ptr %9, align 4, !tbaa !12
  %28 = icmp ne i32 %27, -1
  br i1 %28, label %29, label %34

29:                                               ; preds = %26
  %30 = load i32, ptr %9, align 4, !tbaa !12
  %31 = icmp ne i32 %30, 0
  br i1 %31, label %32, label %34

32:                                               ; preds = %29
  %33 = load ptr, ptr @PyExc_ValueError, align 8, !tbaa !3
  call void @PyErr_SetString(ptr noundef %33, ptr noundef @.str.82)
  store ptr null, ptr %4, align 8
  store i32 1, ptr %15, align 4
  br label %130

34:                                               ; preds = %29, %26, %23
  %35 = load ptr, ptr %11, align 8, !tbaa !3
  %36 = icmp ne ptr %35, @_Py_NoneStruct
  br i1 %36, label %37, label %42

37:                                               ; preds = %34
  %38 = load ptr, ptr %12, align 8, !tbaa !3
  %39 = icmp ne ptr %38, @_Py_NoneStruct
  br i1 %39, label %40, label %42

40:                                               ; preds = %37
  %41 = load ptr, ptr @PyExc_ValueError, align 8, !tbaa !3
  call void @PyErr_SetString(ptr noundef %41, ptr noundef @.str.83)
  store ptr null, ptr %4, align 8
  store i32 1, ptr %15, align 4
  br label %130

42:                                               ; preds = %37, %34
  %43 = load ptr, ptr %11, align 8, !tbaa !3
  %44 = icmp ne ptr %43, @_Py_NoneStruct
  br i1 %44, label %45, label %50

45:                                               ; preds = %42
  %46 = load ptr, ptr %11, align 8, !tbaa !3
  %47 = call i32 @uint32_converter(ptr noundef %46, ptr noundef %10)
  %48 = icmp ne i32 %47, 0
  br i1 %48, label %50, label %49

49:                                               ; preds = %45
  store ptr null, ptr %4, align 8
  store i32 1, ptr %15, align 4
  br label %130

50:                                               ; preds = %45, %42
  %51 = load ptr, ptr %5, align 8, !tbaa !19
  %52 = getelementptr inbounds nuw %struct._typeobject, ptr %51, i32 0, i32 36
  %53 = load ptr, ptr %52, align 8, !tbaa !60
  %54 = load ptr, ptr %5, align 8, !tbaa !19
  %55 = call ptr %53(ptr noundef %54, i64 noundef 0)
  store ptr %55, ptr %13, align 8, !tbaa !8
  %56 = load ptr, ptr %13, align 8, !tbaa !8
  %57 = icmp eq ptr %56, null
  br i1 %57, label %58, label %59

58:                                               ; preds = %50
  store ptr null, ptr %4, align 8
  store i32 1, ptr %15, align 4
  br label %130

59:                                               ; preds = %50
  %60 = load ptr, ptr %13, align 8, !tbaa !8
  %61 = getelementptr inbounds nuw %struct.Compressor, ptr %60, i32 0, i32 1
  %62 = getelementptr inbounds nuw %struct.lzma_allocator, ptr %61, i32 0, i32 2
  store ptr null, ptr %62, align 8, !tbaa !61
  %63 = load ptr, ptr %13, align 8, !tbaa !8
  %64 = getelementptr inbounds nuw %struct.Compressor, ptr %63, i32 0, i32 1
  %65 = getelementptr inbounds nuw %struct.lzma_allocator, ptr %64, i32 0, i32 0
  store ptr @PyLzma_Malloc, ptr %65, align 8, !tbaa !62
  %66 = load ptr, ptr %13, align 8, !tbaa !8
  %67 = getelementptr inbounds nuw %struct.Compressor, ptr %66, i32 0, i32 1
  %68 = getelementptr inbounds nuw %struct.lzma_allocator, ptr %67, i32 0, i32 1
  store ptr @PyLzma_Free, ptr %68, align 8, !tbaa !63
  %69 = load ptr, ptr %13, align 8, !tbaa !8
  %70 = getelementptr inbounds nuw %struct.Compressor, ptr %69, i32 0, i32 1
  %71 = load ptr, ptr %13, align 8, !tbaa !8
  %72 = getelementptr inbounds nuw %struct.Compressor, ptr %71, i32 0, i32 2
  %73 = getelementptr inbounds nuw %struct.lzma_stream, ptr %72, i32 0, i32 6
  store ptr %70, ptr %73, align 8, !tbaa !64
  %74 = call ptr @PyThread_allocate_lock()
  %75 = load ptr, ptr %13, align 8, !tbaa !8
  %76 = getelementptr inbounds nuw %struct.Compressor, ptr %75, i32 0, i32 4
  store ptr %74, ptr %76, align 8, !tbaa !47
  %77 = load ptr, ptr %13, align 8, !tbaa !8
  %78 = getelementptr inbounds nuw %struct.Compressor, ptr %77, i32 0, i32 4
  %79 = load ptr, ptr %78, align 8, !tbaa !47
  %80 = icmp eq ptr %79, null
  br i1 %80, label %81, label %84

81:                                               ; preds = %59
  %82 = load ptr, ptr %13, align 8, !tbaa !8
  call void @Py_DECREF(ptr noundef %82)
  %83 = load ptr, ptr @PyExc_MemoryError, align 8, !tbaa !3
  call void @PyErr_SetString(ptr noundef %83, ptr noundef @.str.84)
  store ptr null, ptr %4, align 8
  store i32 1, ptr %15, align 4
  br label %130

84:                                               ; preds = %59
  %85 = load ptr, ptr %13, align 8, !tbaa !8
  %86 = getelementptr inbounds nuw %struct.Compressor, ptr %85, i32 0, i32 3
  store i32 0, ptr %86, align 8, !tbaa !65
  %87 = load i32, ptr %8, align 4, !tbaa !12
  switch i32 %87, label %122 [
    i32 1, label %88
    i32 2, label %103
    i32 3, label %113
  ]

88:                                               ; preds = %84
  %89 = load i32, ptr %9, align 4, !tbaa !12
  %90 = icmp eq i32 %89, -1
  br i1 %90, label %91, label %92

91:                                               ; preds = %88
  store i32 4, ptr %9, align 4, !tbaa !12
  br label %92

92:                                               ; preds = %91, %88
  %93 = load ptr, ptr %14, align 8, !tbaa !8
  %94 = load ptr, ptr %13, align 8, !tbaa !8
  %95 = getelementptr inbounds nuw %struct.Compressor, ptr %94, i32 0, i32 2
  %96 = load i32, ptr %9, align 4, !tbaa !12
  %97 = load i32, ptr %10, align 4, !tbaa !12
  %98 = load ptr, ptr %12, align 8, !tbaa !3
  %99 = call i32 @Compressor_init_xz(ptr noundef %93, ptr noundef %95, i32 noundef %96, i32 noundef %97, ptr noundef %98)
  %100 = icmp ne i32 %99, 0
  br i1 %100, label %101, label %102

101:                                              ; preds = %92
  br label %128

102:                                              ; preds = %92
  br label %126

103:                                              ; preds = %84
  %104 = load ptr, ptr %14, align 8, !tbaa !8
  %105 = load ptr, ptr %13, align 8, !tbaa !8
  %106 = getelementptr inbounds nuw %struct.Compressor, ptr %105, i32 0, i32 2
  %107 = load i32, ptr %10, align 4, !tbaa !12
  %108 = load ptr, ptr %12, align 8, !tbaa !3
  %109 = call i32 @Compressor_init_alone(ptr noundef %104, ptr noundef %106, i32 noundef %107, ptr noundef %108)
  %110 = icmp ne i32 %109, 0
  br i1 %110, label %111, label %112

111:                                              ; preds = %103
  br label %128

112:                                              ; preds = %103
  br label %126

113:                                              ; preds = %84
  %114 = load ptr, ptr %14, align 8, !tbaa !8
  %115 = load ptr, ptr %13, align 8, !tbaa !8
  %116 = getelementptr inbounds nuw %struct.Compressor, ptr %115, i32 0, i32 2
  %117 = load ptr, ptr %12, align 8, !tbaa !3
  %118 = call i32 @Compressor_init_raw(ptr noundef %114, ptr noundef %116, ptr noundef %117)
  %119 = icmp ne i32 %118, 0
  br i1 %119, label %120, label %121

120:                                              ; preds = %113
  br label %128

121:                                              ; preds = %113
  br label %126

122:                                              ; preds = %84
  %123 = load ptr, ptr @PyExc_ValueError, align 8, !tbaa !3
  %124 = load i32, ptr %8, align 4, !tbaa !12
  %125 = call ptr (ptr, ptr, ...) @PyErr_Format(ptr noundef %123, ptr noundef @.str.85, i32 noundef %124)
  br label %128

126:                                              ; preds = %121, %112, %102
  %127 = load ptr, ptr %13, align 8, !tbaa !8
  store ptr %127, ptr %4, align 8
  store i32 1, ptr %15, align 4
  br label %130

128:                                              ; preds = %122, %120, %111, %101
  %129 = load ptr, ptr %13, align 8, !tbaa !8
  call void @Py_DECREF(ptr noundef %129)
  store ptr null, ptr %4, align 8
  store i32 1, ptr %15, align 4
  br label %130

130:                                              ; preds = %128, %126, %81, %58, %49, %40, %32, %22
  call void @llvm.lifetime.end.p0(i64 8, ptr %14) #9
  call void @llvm.lifetime.end.p0(i64 8, ptr %13) #9
  call void @llvm.lifetime.end.p0(i64 8, ptr %12) #9
  call void @llvm.lifetime.end.p0(i64 8, ptr %11) #9
  call void @llvm.lifetime.end.p0(i64 4, ptr %10) #9
  call void @llvm.lifetime.end.p0(i64 4, ptr %9) #9
  call void @llvm.lifetime.end.p0(i64 4, ptr %8) #9
  %131 = load ptr, ptr %4, align 8
  ret ptr %131
}