; Function Attrs: nounwind uwtable
define internal ptr @Compressor_new(ptr noundef %0, ptr noundef %1, ptr noundef %2) #0 {
  %4 = alloca i32, align 4
  %5 = alloca i32, align 4
  %6 = alloca ptr, align 8
  %7 = alloca ptr, align 8
  call void @llvm.lifetime.start.p0(i64 4, ptr nonnull %4) #10
  store i32 1, ptr %4, align 4, !tbaa !19
  call void @llvm.lifetime.start.p0(i64 4, ptr nonnull %5) #10
  store i32 -1, ptr %5, align 4, !tbaa !19
  call void @llvm.lifetime.start.p0(i64 8, ptr nonnull %6) #10
  store ptr @_Py_NoneStruct, ptr %6, align 8, !tbaa !15
  call void @llvm.lifetime.start.p0(i64 8, ptr nonnull %7) #10
  store ptr @_Py_NoneStruct, ptr %7, align 8, !tbaa !15
  %8 = tail call ptr @PyType_GetModuleState(ptr noundef %0) #10
  %9 = call i32 (ptr, ptr, ptr, ptr, ...) @PyArg_ParseTupleAndKeywords(ptr noundef %1, ptr noundef %2, ptr noundef nonnull @.str.81, ptr noundef nonnull @Compressor_new.arg_names, ptr noundef nonnull %4, ptr noundef nonnull %5, ptr noundef nonnull %6, ptr noundef nonnull %7) #10
  %.not = icmp eq i32 %9, 0
  br i1 %.not, label %Py_DECREF.exit, label %10

10:                                               ; preds = %3
  %11 = load i32, ptr %4, align 4, !tbaa !19
  %12 = icmp ne i32 %11, 1
  %13 = load i32, ptr %5, align 4
  %14 = add i32 %13, -1
  %15 = icmp ult i32 %14, -2
  %or.cond3 = select i1 %12, i1 %15, i1 false
  br i1 %or.cond3, label %16, label %18

16:                                               ; preds = %10
  %17 = load ptr, ptr @PyExc_ValueError, align 8, !tbaa !15
  call void @PyErr_SetString(ptr noundef %17, ptr noundef nonnull @.str.82) #10
  br label %Py_DECREF.exit

18:                                               ; preds = %10
  %19 = load ptr, ptr %6, align 8, !tbaa !15
  %20 = icmp ne ptr %19, @_Py_NoneStruct
  %21 = load ptr, ptr %7, align 8
  %22 = icmp ne ptr %21, @_Py_NoneStruct
  %or.cond5 = select i1 %20, i1 %22, i1 false
  br i1 %or.cond5, label %23, label %25

23:                                               ; preds = %18
  %24 = load ptr, ptr @PyExc_ValueError, align 8, !tbaa !15
  call void @PyErr_SetString(ptr noundef %24, ptr noundef nonnull @.str.83) #10
  br label %Py_DECREF.exit

25:                                               ; preds = %18
  br i1 %20, label %26, label %33

26:                                               ; preds = %25
  %27 = call i64 @PyLong_AsUnsignedLongLong(ptr noundef %19) #10
  %28 = call ptr @PyErr_Occurred() #10
  %.not.i38 = icmp eq ptr %28, null
  br i1 %.not.i38, label %29, label %Py_DECREF.exit

29:                                               ; preds = %26
  %.not5.i = icmp ult i64 %27, 4294967296
  br i1 %.not5.i, label %uint32_converter.exit, label %30

30:                                               ; preds = %29
  %31 = load ptr, ptr @PyExc_OverflowError, align 8, !tbaa !15
  call void @PyErr_SetString(ptr noundef %31, ptr noundef nonnull @.str.21) #10
  br label %Py_DECREF.exit

uint32_converter.exit:                            ; preds = %29
  %32 = trunc nuw i64 %27 to i32
  br label %33

33:                                               ; preds = %uint32_converter.exit, %25
  %.040 = phi i32 [ %32, %uint32_converter.exit ], [ 6, %25 ]
  %34 = getelementptr inbounds nuw i8, ptr %0, i64 304
  %35 = load ptr, ptr %34, align 8, !tbaa !52
  %36 = call ptr %35(ptr noundef %0, i64 noundef 0) #10
  %37 = icmp eq ptr %36, null
  br i1 %37, label %Py_DECREF.exit, label %38

38:                                               ; preds = %33
  %39 = getelementptr inbounds nuw i8, ptr %36, i64 16
  %40 = getelementptr inbounds nuw i8, ptr %36, i64 32
  store ptr null, ptr %40, align 8, !tbaa !53
  store ptr @PyLzma_Malloc, ptr %39, align 8, !tbaa !54
  %41 = getelementptr inbounds nuw i8, ptr %36, i64 24
  store ptr @PyLzma_Free, ptr %41, align 8, !tbaa !55
  %42 = getelementptr inbounds nuw i8, ptr %36, i64 40
  %43 = getelementptr inbounds nuw i8, ptr %36, i64 88
  store ptr %39, ptr %43, align 8, !tbaa !56
  %44 = call ptr @PyThread_allocate_lock() #10
  %45 = getelementptr inbounds nuw i8, ptr %36, i64 184
  store ptr %44, ptr %45, align 8, !tbaa !38
  %46 = icmp eq ptr %44, null
  br i1 %46, label %47, label %54

47:                                               ; preds = %38
  %48 = load i32, ptr %36, align 8, !tbaa !14
  %.not.i35 = icmp sgt i32 %48, -1
  br i1 %.not.i35, label %49, label %Py_DECREF.exit36

49:                                               ; preds = %47
  %50 = add nsw i32 %48, -1
  store i32 %50, ptr %36, align 8, !tbaa !14
  %51 = icmp eq i32 %50, 0
  br i1 %51, label %52, label %Py_DECREF.exit36

52:                                               ; preds = %49
  call void @_Py_Dealloc(ptr noundef nonnull %36) #10
  br label %Py_DECREF.exit36

Py_DECREF.exit36:                                 ; preds = %47, %49, %52
  %53 = load ptr, ptr @PyExc_MemoryError, align 8, !tbaa !15
  call void @PyErr_SetString(ptr noundef %53, ptr noundef nonnull @.str.84) #10
  br label %Py_DECREF.exit

54:                                               ; preds = %38
  %55 = getelementptr inbounds nuw i8, ptr %36, i64 176
  store i32 0, ptr %55, align 8, !tbaa !57
  %56 = load i32, ptr %4, align 4, !tbaa !19
  switch i32 %56, label %71 [
    i32 1, label %57
    i32 2, label %65
    i32 3, label %68
  ]

57:                                               ; preds = %54
  %58 = load i32, ptr %5, align 4, !tbaa !19
  %59 = icmp eq i32 %58, -1
  br i1 %59, label %60, label %61

60:                                               ; preds = %57
  store i32 4, ptr %5, align 4, !tbaa !19
  br label %61

61:                                               ; preds = %60, %57
  %62 = phi i32 [ 4, %60 ], [ %58, %57 ]
  %63 = load ptr, ptr %7, align 8, !tbaa !15
  %64 = call fastcc i32 @Compressor_init_xz(ptr noundef %8, ptr noundef %42, i32 noundef %62, i32 noundef %.040, ptr noundef %63)
  %.not34 = icmp eq i32 %64, 0
  br i1 %.not34, label %Py_DECREF.exit, label %74

65:                                               ; preds = %54
  %66 = load ptr, ptr %7, align 8, !tbaa !15
  %67 = call fastcc i32 @Compressor_init_alone(ptr noundef %8, ptr noundef %42, i32 noundef %.040, ptr noundef %66)
  %.not33 = icmp eq i32 %67, 0
  br i1 %.not33, label %Py_DECREF.exit, label %74

68:                                               ; preds = %54
  %69 = load ptr, ptr %7, align 8, !tbaa !15
  %70 = call fastcc i32 @Compressor_init_raw(ptr noundef %8, ptr noundef %42, ptr noundef %69)
  %.not32 = icmp eq i32 %70, 0
  br i1 %.not32, label %Py_DECREF.exit, label %74

71:                                               ; preds = %54
  %72 = load ptr, ptr @PyExc_ValueError, align 8, !tbaa !15
  %73 = call ptr (ptr, ptr, ...) @PyErr_Format(ptr noundef %72, ptr noundef nonnull @.str.85, i32 noundef %56) #10
  br label %74

74:                                               ; preds = %68, %65, %61, %71
  %75 = load i32, ptr %36, align 8, !tbaa !14
  %.not.i = icmp sgt i32 %75, -1
  br i1 %.not.i, label %76, label %Py_DECREF.exit

76:                                               ; preds = %74
  %77 = add nsw i32 %75, -1
  store i32 %77, ptr %36, align 8, !tbaa !14
  %78 = icmp eq i32 %77, 0
  br i1 %78, label %79, label %Py_DECREF.exit

79:                                               ; preds = %76
  call void @_Py_Dealloc(ptr noundef nonnull %36) #10
  br label %Py_DECREF.exit

Py_DECREF.exit:                                   ; preds = %26, %30, %79, %76, %74, %61, %65, %68, %33, %3, %Py_DECREF.exit36, %23, %16
  %.0 = phi ptr [ null, %16 ], [ null, %23 ], [ null, %Py_DECREF.exit36 ], [ null, %3 ], [ null, %33 ], [ %36, %68 ], [ %36, %65 ], [ %36, %61 ], [ null, %74 ], [ null, %76 ], [ null, %79 ], [ null, %30 ], [ null, %26 ]
  call void @llvm.lifetime.end.p0(i64 8, ptr nonnull %7) #10
  call void @llvm.lifetime.end.p0(i64 8, ptr nonnull %6) #10
  call void @llvm.lifetime.end.p0(i64 4, ptr nonnull %5) #10
  call void @llvm.lifetime.end.p0(i64 4, ptr nonnull %4) #10
  ret ptr %.0
}